target datalayout = "e-m:e-p270:32:32-p271:32:32-p272:64:64-i64:64-i128:128-f80:128-n8:16:32:64-S128"
target triple = "x86_64-pc-linux-gnu"

%struct.blake2b_param_st = type { i8, i8, i8, i8, [4 x i8], [8 x i8], i8, i8, [14 x i8], [16 x i8], [16 x i8] }

; Function Attrs: inlinehint nounwind uwtable
define internal void @store64(ptr noundef %0, i64 noundef %1) #1 {
  %3 = alloca ptr, align 8
  %4 = alloca i64, align 8
  %5 = alloca i32, align 4
  store ptr %0, ptr %3, align 8, !tbaa !15
  store i64 %1, ptr %4, align 8, !tbaa !19
  call void @llvm.lifetime.start.p0(i64 4, ptr %5) #6
  store i32 1, ptr %5, align 4, !tbaa !17
  %6 = load ptr, ptr %3, align 8, !tbaa !15
  call void @llvm.memcpy.p0.p0.i64(ptr align 1 %6, ptr align 8 %4, i64 8, i1 false)
  call void @llvm.lifetime.end.p0(i64 4, ptr %5) #6
  ret void
}

; Function Attrs: inlinehint nounwind uwtable
define internal void @store32(ptr noundef %0, i32 noundef %1) #1 {
  %3 = alloca ptr, align 8
  %4 = alloca i32, align 4
  %5 = alloca i32, align 4
  store ptr %0, ptr %3, align 8, !tbaa !15
  store i32 %1, ptr %4, align 4, !tbaa !17
  call void @llvm.lifetime.start.p0(i64 4, ptr %5) #6
  store i32 1, ptr %5, align 4, !tbaa !17
  %6 = load ptr, ptr %3, align 8, !tbaa !15
  call void @llvm.memcpy.p0.p0.i64(ptr align 1 %6, ptr align 4 %4, i64 4, i1 false)
  call void @llvm.lifetime.end.p0(i64 4, ptr %5) #6
  ret void
}

; Function Attrs: nounwind uwtable
define void @ossl_blake2b_param_init(ptr noundef %0) #0 {
  %2 = alloca ptr, align 8
  store ptr %0, ptr %2, align 8, !tbaa !3
  %3 = load ptr, ptr %2, align 8, !tbaa !3
  %4 = getelementptr inbounds nuw %struct.blake2b_param_st, ptr %3, i32 0, i32 0
  store i8 64, ptr %4, align 1, !tbaa !8
  %5 = load ptr, ptr %2, align 8, !tbaa !3
  %6 = getelementptr inbounds nuw %struct.blake2b_param_st, ptr %5, i32 0, i32 1
  store i8 0, ptr %6, align 1, !tbaa !10
  %7 = load ptr, ptr %2, align 8, !tbaa !3
  %8 = getelementptr inbounds nuw %struct.blake2b_param_st, ptr %7, i32 0, i32 2
  store i8 1, ptr %8, align 1, !tbaa !11
  %9 = load ptr, ptr %2, align 8, !tbaa !3
  %10 = getelementptr inbounds nuw %struct.blake2b_param_st, ptr %9, i32 0, i32 3
  store i8 1, ptr %10, align 1, !tbaa !12
  %11 = load ptr, ptr %2, align 8, !tbaa !3
  %12 = getelementptr inbounds nuw %struct.blake2b_param_st, ptr %11, i32 0, i32 4
  %13 = getelementptr inbounds [4 x i8], ptr %12, i64 0, i64 0
  call void @store32(ptr noundef %13, i32 noundef 0)
  %14 = load ptr, ptr %2, align 8, !tbaa !3
  %15 = getelementptr inbounds nuw %struct.blake2b_param_st, ptr %14, i32 0, i32 5
  %16 = getelementptr inbounds [8 x i8], ptr %15, i64 0, i64 0
  call void @store64(ptr noundef %16, i64 noundef 0)
  %17 = load ptr, ptr %2, align 8, !tbaa !3
  %18 = getelementptr inbounds nuw %struct.blake2b_param_st, ptr %17, i32 0, i32 6
  store i8 0, ptr %18, align 1, !tbaa !13
  %19 = load ptr, ptr %2, align 8, !tbaa !3
  %20 = getelementptr inbounds nuw %struct.blake2b_param_st, ptr %19, i32 0, i32 7
  store i8 0, ptr %20, align 1, !tbaa !14
  %21 = load ptr, ptr %2, align 8, !tbaa !3
  %22 = getelementptr inbounds nuw %struct.blake2b_param_st, ptr %21, i32 0, i32 8
  %23 = getelementptr inbounds [14 x i8], ptr %22, i64 0, i64 0
  call void @llvm.memset.p0.i64(ptr align 1 %23, i8 0, i64 14, i1 false)
  %24 = load ptr, ptr %2, align 8, !tbaa !3
  %25 = getelementptr inbounds nuw %struct.blake2b_param_st, ptr %24, i32 0, i32 9
  %26 = getelementptr inbounds [16 x i8], ptr %25, i64 0, i64 0
  call void @llvm.memset.p0.i64(ptr align 1 %26, i8 0, i64 16, i1 false)
  %27 = load ptr, ptr %2, align 8, !tbaa !3
  %28 = getelementptr inbounds nuw %struct.blake2b_param_st, ptr %27, i32 0, i32 10
  %29 = getelementptr inbounds [16 x i8], ptr %28, i64 0, i64 0
  call void @llvm.memset.p0.i64(ptr align 1 %29, i8 0, i64 16, i1 false)
  ret void
}